; Function Attrs: mustprogress uwtable
define hidden void @_ZN7nanogui9ImageView6centerEv(ptr noundef nonnull align 8 dereferenceable(272) %0) local_unnamed_addr #0 align 2 {
  %2 = getelementptr inbounds i8, ptr %0, i64 184
  %3 = load ptr, ptr %2, align 8
  %.not = icmp eq ptr %3, null
  br i1 %.not, label %28, label %_ZN7nanogui5ArrayIfLm2EEC2Ef.exit.critedge

_ZN7nanogui5ArrayIfLm2EEC2Ef.exit.critedge:       ; preds = %1
  %4 = getelementptr inbounds i8, ptr %0, i64 48
  %5 = getelementptr inbounds i8, ptr %0, i64 192
  %6 = getelementptr inbounds i8, ptr %0, i64 196
  %7 = load <2 x i32>, ptr %4, align 8
  %8 = sitofp <2 x i32> %7 to <2 x float>
  %9 = tail call noundef ptr @_ZN7nanogui6Widget6screenEv(ptr noundef nonnull align 8 dereferenceable(140) %0)
  %10 = getelementptr inbounds i8, ptr %9, i64 248
  %11 = load float, ptr %10, align 8
  %12 = insertelement <2 x float> poison, float %11, i64 0
  %13 = shufflevector <2 x float> %12, <2 x float> poison, <2 x i32> zeroinitializer
  %14 = fmul <2 x float> %13, %8
  %15 = load ptr, ptr %2, align 8
  %16 = getelementptr inbounds i8, ptr %15, i64 20
  %17 = load <2 x i32>, ptr %16, align 4
  %18 = sitofp <2 x i32> %17 to <2 x float>
  %19 = load float, ptr %5, align 8
  %20 = fdiv float %19, 5.000000e+00
  %exp2f.i = tail call noundef float @exp2f(float %20)
  %21 = insertelement <2 x float> poison, float %exp2f.i, i64 0
  %22 = shufflevector <2 x float> %21, <2 x float> poison, <2 x i32> zeroinitializer
  %23 = fmul <2 x float> %22, %18
  %24 = fsub <2 x float> %14, %23
  %25 = fmul <2 x float> %24, <float 5.000000e-01, float 5.000000e-01>
  %26 = fptosi <2 x float> %25 to <2 x i32>
  %27 = sitofp <2 x i32> %26 to <2 x float>
  store <2 x float> %27, ptr %6, align 4
  br label %28

28:                                               ; preds = %1, %_ZN7nanogui5ArrayIfLm2EEC2Ef.exit.critedge
  ret void
}